target datalayout = "e-m:e-p270:32:32-p271:32:32-p272:64:64-i64:64-f80:128-n8:16:32:64-S128"
target triple = "x86_64-pc-linux-gnu"

@__const.main.hang = private unnamed_addr constant [8 x i32] [i32 -1, i32 -1, i32 -1, i32 -1, i32 -1, i32 -1, i32 -1, i32 -1], align 16
@.str = private unnamed_addr constant [6 x i8] c"%d,%d\00", align 1
@.str.1 = private unnamed_addr constant [3 x i8] c"%d\00", align 1
@.str.2 = private unnamed_addr constant [7 x i8] c"%d+%d\0A\00", align 1
@.str.3 = private unnamed_addr constant [3 x i8] c"No\00", align 1

; Function Attrs: noinline nounwind uwtable
define dso_local void @main() #0 {
  %1 = alloca [8 x i32], align 16
  %2 = alloca [8 x i32], align 16
  %3 = alloca [8 x [8 x i32]], align 16
  %4 = alloca i32, align 4
  %5 = alloca i32, align 4
  %6 = alloca i32, align 4
  %7 = alloca i32, align 4
  %8 = alloca i32, align 4
  %9 = alloca [8 x i32], align 16
  %10 = bitcast [8 x i32]* %1 to i8*
  call void @llvm.memcpy.p0i8.p0i8.i64(i8* align 16 %10, i8* align 16 bitcast ([8 x i32]* @__const.main.hang to i8*), i64 32, i1 false)
  %11 = bitcast [8 x i32]* %2 to i8*
  call void @llvm.memset.p0i8.i64(i8* align 16 %11, i8 0, i64 32, i1 false)
  %12 = bitcast [8 x i32]* %9 to i8*
  call void @llvm.memset.p0i8.i64(i8* align 16 %12, i8 0, i64 32, i1 false)
  store i32 0, i32* %4, align 4
  br label %13

13:                                               ; preds = %31, %0
  %14 = load i32, i32* %4, align 4
  %15 = icmp slt i32 %14, 8
  br i1 %15, label %16, label %34

16:                                               ; preds = %13
  store i32 0, i32* %7, align 4
  br label %17

17:                                               ; preds = %27, %16
  %18 = load i32, i32* %7, align 4
  %19 = icmp slt i32 %18, 8
  br i1 %19, label %20, label %30

20:                                               ; preds = %17
  %21 = load i32, i32* %4, align 4
  %22 = sext i32 %21 to i64
  %23 = getelementptr inbounds [8 x [8 x i32]], [8 x [8 x i32]]* %3, i64 0, i64 %22
  %24 = load i32, i32* %7, align 4
  %25 = sext i32 %24 to i64
  %26 = getelementptr inbounds [8 x i32], [8 x i32]* %23, i64 0, i64 %25
  store i32 -1312, i32* %26, align 4
  br label %27

27:                                               ; preds = %20
  %28 = load i32, i32* %7, align 4
  %29 = add nsw i32 %28, 1
  store i32 %29, i32* %7, align 4
  br label %17

30:                                               ; preds = %17
  br label %31

31:                                               ; preds = %30
  %32 = load i32, i32* %4, align 4
  %33 = add nsw i32 %32, 1
  store i32 %33, i32* %4, align 4
  br label %13

34:                                               ; preds = %13
  %35 = call i32 (i8*, ...) @__isoc99_scanf(i8* getelementptr inbounds ([6 x i8], [6 x i8]* @.str, i64 0, i64 0), i32* %5, i32* %6)
  store i32 0, i32* %4, align 4
  br label %36

36:                                               ; preds = %57, %34
  %37 = load i32, i32* %4, align 4
  %38 = load i32, i32* %5, align 4
  %39 = icmp slt i32 %37, %38
  br i1 %39, label %40, label %60

40:                                               ; preds = %36
  store i32 0, i32* %7, align 4
  br label %41

41:                                               ; preds = %53, %40
  %42 = load i32, i32* %7, align 4
  %43 = load i32, i32* %6, align 4
  %44 = icmp slt i32 %42, %43
  br i1 %44, label %45, label %56

45:                                               ; preds = %41
  %46 = load i32, i32* %4, align 4
  %47 = sext i32 %46 to i64
  %48 = getelementptr inbounds [8 x [8 x i32]], [8 x [8 x i32]]* %3, i64 0, i64 %47
  %49 = load i32, i32* %7, align 4
  %50 = sext i32 %49 to i64
  %51 = getelementptr inbounds [8 x i32], [8 x i32]* %48, i64 0, i64 %50
  %52 = call i32 (i8*, ...) @__isoc99_scanf(i8* getelementptr inbounds ([3 x i8], [3 x i8]* @.str.1, i64 0, i64 0), i32* %51)
  br label %53

53:                                               ; preds = %45
  %54 = load i32, i32* %7, align 4
  %55 = add nsw i32 %54, 1
  store i32 %55, i32* %7, align 4
  br label %41

56:                                               ; preds = %41
  br label %57

57:                                               ; preds = %56
  %58 = load i32, i32* %4, align 4
  %59 = add nsw i32 %58, 1
  store i32 %59, i32* %4, align 4
  br label %36

60:                                               ; preds = %36
  store i32 0, i32* %4, align 4
  br label %61

61:                                               ; preds = %113, %60
  %62 = load i32, i32* %4, align 4
  %63 = load i32, i32* %5, align 4
  %64 = icmp slt i32 %62, %63
  br i1 %64, label %65, label %116

65:                                               ; preds = %61
  store i32 0, i32* %7, align 4
  br label %66

66:                                               ; preds = %109, %65
  %67 = load i32, i32* %7, align 4
  %68 = load i32, i32* %6, align 4
  %69 = icmp slt i32 %67, %68
  br i1 %69, label %70, label %112

70:                                               ; preds = %66
  %71 = load i32, i32* %4, align 4
  %72 = sext i32 %71 to i64
  %73 = getelementptr inbounds [8 x [8 x i32]], [8 x [8 x i32]]* %3, i64 0, i64 %72
  %74 = load i32, i32* %7, align 4
  %75 = sext i32 %74 to i64
  %76 = getelementptr inbounds [8 x i32], [8 x i32]* %73, i64 0, i64 %75
  %77 = load i32, i32* %76, align 4
  %78 = icmp ne i32 %77, -1312
  br i1 %78, label %79, label %108

79:                                               ; preds = %70
  %80 = load i32, i32* %4, align 4
  %81 = sext i32 %80 to i64
  %82 = getelementptr inbounds [8 x [8 x i32]], [8 x [8 x i32]]* %3, i64 0, i64 %81
  %83 = load i32, i32* %7, align 4
  %84 = sext i32 %83 to i64
  %85 = getelementptr inbounds [8 x i32], [8 x i32]* %82, i64 0, i64 %84
  %86 = load i32, i32* %85, align 4
  %87 = load i32, i32* %4, align 4
  %88 = sext i32 %87 to i64
  %89 = getelementptr inbounds [8 x i32], [8 x i32]* %1, i64 0, i64 %88
  %90 = load i32, i32* %89, align 4
  %91 = icmp sgt i32 %86, %90
  br i1 %91, label %92, label %107

92:                                               ; preds = %79
  %93 = load i32, i32* %4, align 4
  %94 = sext i32 %93 to i64
  %95 = getelementptr inbounds [8 x [8 x i32]], [8 x [8 x i32]]* %3, i64 0, i64 %94
  %96 = load i32, i32* %7, align 4
  %97 = sext i32 %96 to i64
  %98 = getelementptr inbounds [8 x i32], [8 x i32]* %95, i64 0, i64 %97
  %99 = load i32, i32* %98, align 4
  %100 = load i32, i32* %4, align 4
  %101 = sext i32 %100 to i64
  %102 = getelementptr inbounds [8 x i32], [8 x i32]* %1, i64 0, i64 %101
  store i32 %99, i32* %102, align 4
  %103 = load i32, i32* %7, align 4
  %104 = load i32, i32* %4, align 4
  %105 = sext i32 %104 to i64
  %106 = getelementptr inbounds [8 x i32], [8 x i32]* %2, i64 0, i64 %105
  store i32 %103, i32* %106, align 4
  br label %107

107:                                              ; preds = %92, %79
  br label %108

108:                                              ; preds = %107, %70
  br label %109

109:                                              ; preds = %108
  %110 = load i32, i32* %7, align 4
  %111 = add nsw i32 %110, 1
  store i32 %111, i32* %7, align 4
  br label %66

112:                                              ; preds = %66
  br label %113

113:                                              ; preds = %112
  %114 = load i32, i32* %4, align 4
  %115 = add nsw i32 %114, 1
  store i32 %115, i32* %4, align 4
  br label %61

116:                                              ; preds = %61
  store i32 0, i32* %4, align 4
  br label %117

117:                                              ; preds = %154, %116
  %118 = load i32, i32* %4, align 4
  %119 = load i32, i32* %5, align 4
  %120 = icmp slt i32 %118, %119
  br i1 %120, label %121, label %157

121:                                              ; preds = %117
  %122 = load i32, i32* %4, align 4
  %123 = sext i32 %122 to i64
  %124 = getelementptr inbounds [8 x i32], [8 x i32]* %2, i64 0, i64 %123
  %125 = load i32, i32* %124, align 4
  store i32 %125, i32* %8, align 4
  store i32 0, i32* %7, align 4
  br label %126

126:                                              ; preds = %150, %121
  %127 = load i32, i32* %7, align 4
  %128 = load i32, i32* %5, align 4
  %129 = icmp slt i32 %127, %128
  br i1 %129, label %130, label %153

130:                                              ; preds = %126
  %131 = load i32, i32* %4, align 4
  %132 = sext i32 %131 to i64
  %133 = getelementptr inbounds [8 x i32], [8 x i32]* %1, i64 0, i64 %132
  %134 = load i32, i32* %133, align 4
  %135 = load i32, i32* %7, align 4
  %136 = sext i32 %135 to i64
  %137 = getelementptr inbounds [8 x [8 x i32]], [8 x [8 x i32]]* %3, i64 0, i64 %136
  %138 = load i32, i32* %8, align 4
  %139 = sext i32 %138 to i64
  %140 = getelementptr inbounds [8 x i32], [8 x i32]* %137, i64 0, i64 %139
  %141 = load i32, i32* %140, align 4
  %142 = icmp slt i32 %134, %141
  br i1 %142, label %143, label %149

143:                                              ; preds = %130
  %144 = load i32, i32* %4, align 4
  %145 = sext i32 %144 to i64
  %146 = getelementptr inbounds [8 x i32], [8 x i32]* %9, i64 0, i64 %145
  %147 = load i32, i32* %146, align 4
  %148 = add nsw i32 %147, 1
  store i32 %148, i32* %146, align 4
  br label %149

149:                                              ; preds = %143, %130
  br label %150

150:                                              ; preds = %149
  %151 = load i32, i32* %7, align 4
  %152 = add nsw i32 %151, 1
  store i32 %152, i32* %7, align 4
  br label %126

153:                                              ; preds = %126
  br label %154

154:                                              ; preds = %153
  %155 = load i32, i32* %4, align 4
  %156 = add nsw i32 %155, 1
  store i32 %156, i32* %4, align 4
  br label %117

157:                                              ; preds = %117
  store i32 0, i32* %8, align 4
  store i32 0, i32* %4, align 4
  br label %158

158:                                              ; preds = %181, %157
  %159 = load i32, i32* %4, align 4
  %160 = load i32, i32* %5, align 4
  %161 = icmp slt i32 %159, %160
  br i1 %161, label %162, label %184

162:                                              ; preds = %158
  %163 = load i32, i32* %4, align 4
  %164 = sext i32 %163 to i64
  %165 = getelementptr inbounds [8 x i32], [8 x i32]* %9, i64 0, i64 %164
  %166 = load i32, i32* %165, align 4
  %167 = load i32, i32* %5, align 4
  %168 = sub nsw i32 %167, 1
  %169 = icmp eq i32 %166, %168
  br i1 %169, label %170, label %177

170:                                              ; preds = %162
  %171 = load i32, i32* %4, align 4
  %172 = load i32, i32* %4, align 4
  %173 = sext i32 %172 to i64
  %174 = getelementptr inbounds [8 x i32], [8 x i32]* %2, i64 0, i64 %173
  %175 = load i32, i32* %174, align 4
  %176 = call i32 (i8*, ...) @printf(i8* getelementptr inbounds ([7 x i8], [7 x i8]* @.str.2, i64 0, i64 0), i32 %171, i32 %175)
  br label %180

177:                                              ; preds = %162
  %178 = load i32, i32* %8, align 4
  %179 = add nsw i32 %178, 1
  store i32 %179, i32* %8, align 4
  br label %180

180:                                              ; preds = %177, %170
  br label %181

181:                                              ; preds = %180
  %182 = load i32, i32* %4, align 4
  %183 = add nsw i32 %182, 1
  store i32 %183, i32* %4, align 4
  br label %158

184:                                              ; preds = %158
  %185 = load i32, i32* %8, align 4
  %186 = load i32, i32* %5, align 4
  %187 = icmp eq i32 %185, %186
  br i1 %187, label %188, label %190

188:                                              ; preds = %184
  %189 = call i32 (i8*, ...) @printf(i8* getelementptr inbounds ([3 x i8], [3 x i8]* @.str.3, i64 0, i64 0))
  br label %190

190:                                              ; preds = %188, %184
  ret void
}